; Function Attrs: mustprogress uwtable
define dso_local void @_ZN4i18n12phonenumbers23PhoneMetadataCollectionC2EPN6google8protobuf5ArenaE(ptr noundef nonnull align 8 dereferenceable(48) %0, ptr noundef %1) unnamed_addr #3 align 2 personality ptr @__gxx_personality_v0 {
  %3 = getelementptr inbounds i8, ptr %0, i64 8
  store ptr %1, ptr %3, align 8
  store ptr getelementptr inbounds ({ [16 x ptr] }, ptr @_ZTVN4i18n12phonenumbers23PhoneMetadataCollectionE, i64 0, i32 0, i64 2), ptr %0, align 8
  %4 = getelementptr inbounds i8, ptr %0, i64 16
  store ptr %1, ptr %4, align 8
  %5 = getelementptr inbounds i8, ptr %0, i64 24
  tail call void @llvm.memset.p0.i64(ptr noundef nonnull align 8 dereferenceable(20) %5, i8 0, i64 20, i1 false)
  %6 = load atomic i32, ptr @scc_info_PhoneMetadataCollection_phonemetadata_2eproto acquire, align 8
  %.not.i.i = icmp eq i32 %6, 0
  br i1 %.not.i.i, label %_ZN4i18n12phonenumbers23PhoneMetadataCollection10SharedCtorEv.exit, label %7

7:                                                ; preds = %2
  invoke void @_ZN6google8protobuf8internal11InitSCCImplEPNS1_11SCCInfoBaseE(ptr noundef nonnull @scc_info_PhoneMetadataCollection_phonemetadata_2eproto)
          to label %_ZN4i18n12phonenumbers23PhoneMetadataCollection10SharedCtorEv.exit unwind label %8

_ZN4i18n12phonenumbers23PhoneMetadataCollection10SharedCtorEv.exit: ; preds = %2, %7
  ret void

8:                                                ; preds = %7
  %9 = landingpad { ptr, i32 }
          cleanup
  tail call void @_ZN6google8protobuf16RepeatedPtrFieldIN4i18n12phonenumbers13PhoneMetadataEED2Ev(ptr noundef nonnull align 8 dereferenceable(24) %4) #21
  resume { ptr, i32 } %9
}